target datalayout = "e-m:e-p270:32:32-p271:32:32-p272:64:64-i64:64-i128:128-f80:128-n8:16:32:64-S128"
target triple = "x86_64-pc-linux-gnu"

%struct.AVFormatContext = type { ptr, ptr, ptr, ptr, ptr, i32, i32, ptr, i32, ptr, i32, ptr, ptr, i64, i64, i64, i32, i32, i32, i64, i64, ptr, i32, i32, ptr, i32, i32, i32, i32, ptr, i64, i32, i32, %struct.AVIOInterruptCB, i32, i32, i32, i32, i64, i32, i32, i32, i32, i32, i32, i32, i32, i32, i32, i32, i32, i64, i32, i32, i32, i32, i32, ptr, ptr, ptr, ptr, i32, ptr, ptr, ptr, ptr, i32, ptr, ptr, i64, ptr, ptr, ptr, i64 }
%struct.AVIOInterruptCB = type { ptr, ptr }
%struct.ogg = type { ptr, i32, i32, i32, i64, ptr }
%struct.ogg_stream = type { ptr, i32, i32, i32, i32, i32, i32, i32, i64, i64, i64, i64, i64, i64, i32, ptr, i32, i32, i32, [255 x i8], i32, i32, i32, i32, i32, i32, i32, i32, ptr, i64, ptr }

; Function Attrs: nounwind uwtable
define internal i64 @vp8_gptopts(ptr noundef %0, i32 noundef %1, i64 noundef %2, ptr noundef %3) #0 {
  %5 = alloca ptr, align 8
  %6 = alloca i32, align 4
  %7 = alloca i64, align 8
  %8 = alloca ptr, align 8
  %9 = alloca ptr, align 8
  %10 = alloca ptr, align 8
  %11 = alloca i32, align 4
  %12 = alloca i64, align 8
  %13 = alloca i32, align 4
  store ptr %0, ptr %5, align 8, !tbaa !4
  store i32 %1, ptr %6, align 4, !tbaa !9
  store i64 %2, ptr %7, align 8, !tbaa !84
  store ptr %3, ptr %8, align 8, !tbaa !85
  call void @llvm.lifetime.start.p0(i64 8, ptr %9) #5
  %14 = load ptr, ptr %5, align 8, !tbaa !4
  %15 = getelementptr inbounds nuw %struct.AVFormatContext, ptr %14, i32 0, i32 3
  %16 = load ptr, ptr %15, align 8, !tbaa !11
  store ptr %16, ptr %9, align 8, !tbaa !27
  call void @llvm.lifetime.start.p0(i64 8, ptr %10) #5
  %17 = load ptr, ptr %9, align 8, !tbaa !27
  %18 = getelementptr inbounds nuw %struct.ogg, ptr %17, i32 0, i32 0
  %19 = load ptr, ptr %18, align 8, !tbaa !29
  %20 = load i32, ptr %6, align 4, !tbaa !9
  %21 = sext i32 %20 to i64
  %22 = getelementptr inbounds %struct.ogg_stream, ptr %19, i64 %21
  store ptr %22, ptr %10, align 8, !tbaa !33
  call void @llvm.lifetime.start.p0(i64 4, ptr %11) #5
  %23 = load i64, ptr %7, align 8, !tbaa !84
  %24 = lshr i64 %23, 30
  %25 = and i64 %24, 3
  %26 = icmp ne i64 %25, 0
  %27 = xor i1 %26, true
  %28 = zext i1 %27 to i32
  store i32 %28, ptr %11, align 4, !tbaa !9
  call void @llvm.lifetime.start.p0(i64 8, ptr %12) #5
  %29 = load i64, ptr %7, align 8, !tbaa !84
  %30 = lshr i64 %29, 32
  %31 = load i32, ptr %11, align 4, !tbaa !9
  %32 = sext i32 %31 to i64
  %33 = sub i64 %30, %32
  store i64 %33, ptr %12, align 8, !tbaa !84
  call void @llvm.lifetime.start.p0(i64 4, ptr %13) #5
  %34 = load i64, ptr %7, align 8, !tbaa !84
  %35 = lshr i64 %34, 3
  %36 = and i64 %35, 134217727
  %37 = trunc i64 %36 to i32
  store i32 %37, ptr %13, align 4, !tbaa !9
  %38 = load i32, ptr %13, align 4, !tbaa !9
  %39 = icmp ne i32 %38, 0
  br i1 %39, label %45, label %40

40:                                               ; preds = %4
  %41 = load ptr, ptr %10, align 8, !tbaa !33
  %42 = getelementptr inbounds nuw %struct.ogg_stream, ptr %41, i32 0, i32 5
  %43 = load i32, ptr %42, align 8, !tbaa !87
  %44 = or i32 %43, 1
  store i32 %44, ptr %42, align 8, !tbaa !87
  br label %45

45:                                               ; preds = %40, %4
  %46 = load ptr, ptr %8, align 8, !tbaa !85
  %47 = icmp ne ptr %46, null
  br i1 %47, label %48, label %51

48:                                               ; preds = %45
  %49 = load i64, ptr %12, align 8, !tbaa !84
  %50 = load ptr, ptr %8, align 8, !tbaa !85
  store i64 %49, ptr %50, align 8, !tbaa !84
  br label %51

51:                                               ; preds = %48, %45
  %52 = load i64, ptr %12, align 8, !tbaa !84
  call void @llvm.lifetime.end.p0(i64 4, ptr %13) #5
  call void @llvm.lifetime.end.p0(i64 8, ptr %12) #5
  call void @llvm.lifetime.end.p0(i64 4, ptr %11) #5
  call void @llvm.lifetime.end.p0(i64 8, ptr %10) #5
  call void @llvm.lifetime.end.p0(i64 8, ptr %9) #5
  ret i64 %52
}