; Function Attrs: mustprogress nofree norecurse nosync nounwind willreturn memory(readwrite, inaccessiblemem: none) uwtable
define internal range(i64 -1, 4294967296) i64 @vp8_gptopts(ptr noundef readonly captures(none) %0, i32 noundef %1, i64 noundef %2, ptr noundef writeonly captures(address_is_null) %3) #2 {
  %5 = and i64 %2, 3221225472
  %.not = icmp eq i64 %5, 0
  %6 = lshr i64 %2, 32
  %.neg = sext i1 %.not to i64
  %7 = add nsw i64 %6, %.neg
  %8 = and i64 %2, 1073741816
  %.not12 = icmp eq i64 %8, 0
  br i1 %.not12, label %9, label %17

9:                                                ; preds = %4
  %10 = getelementptr inbounds nuw i8, ptr %0, i64 24
  %11 = load ptr, ptr %10, align 8, !tbaa !4
  %12 = load ptr, ptr %11, align 8, !tbaa !24
  %13 = sext i32 %1 to i64
  %14 = getelementptr inbounds %struct.ogg_stream, ptr %12, i64 %13, i32 5
  %15 = load i32, ptr %14, align 8, !tbaa !72
  %16 = or i32 %15, 1
  store i32 %16, ptr %14, align 8, !tbaa !72
  br label %17

17:                                               ; preds = %9, %4
  %.not13 = icmp eq ptr %3, null
  br i1 %.not13, label %19, label %18

18:                                               ; preds = %17
  store i64 %7, ptr %3, align 8, !tbaa !77
  br label %19

19:                                               ; preds = %18, %17
  ret i64 %7
}